; Function Attrs: nounwind uwtable
define internal void @unsubscribe_on_delete_cb(ptr noundef %0) #0 {
  %2 = tail call ptr @lv_event_get_user_data(ptr noundef %0) #9
  %.not.i = icmp eq ptr %2, null
  br i1 %.not.i, label %.preheader.i, label %3

.preheader.i:                                     ; preds = %1, %.preheader.i
  br label %.preheader.i

3:                                                ; preds = %1
  %4 = load ptr, ptr %2, align 8, !tbaa !9
  %5 = getelementptr inbounds nuw i8, ptr %4, i64 48
  %6 = load i32, ptr %5, align 8
  %7 = or i32 %6, 268435456
  store i32 %7, ptr %5, align 8
  %8 = load ptr, ptr %2, align 8, !tbaa !9
  tail call void @lv_ll_remove(ptr noundef %8, ptr noundef nonnull %2) #9
  %9 = getelementptr inbounds nuw i8, ptr %2, i64 32
  %10 = load i8, ptr %9, align 8
  %11 = and i8 %10, 1
  %.not7.i = icmp eq i8 %11, 0
  br i1 %.not7.i, label %lv_observer_remove.exit, label %12

12:                                               ; preds = %3
  %13 = getelementptr inbounds nuw i8, ptr %2, i64 24
  %14 = load ptr, ptr %13, align 8, !tbaa !13
  tail call void @lv_free(ptr noundef %14) #9
  br label %lv_observer_remove.exit

lv_observer_remove.exit:                          ; preds = %3, %12
  tail call void @lv_free(ptr noundef nonnull %2) #9
  ret void
}